target datalayout = "e-m:e-p270:32:32-p271:32:32-p272:64:64-i64:64-i128:128-f80:128-n8:16:32:64-S128"
target triple = "x86_64-pc-linux-gnu"

%struct.ossl_quic_frame_stream_st = type { i64, i64, i64, ptr, i8 }

; Function Attrs: nounwind uwtable
define ptr @ossl_quic_wire_encode_frame_stream(ptr noundef %0, ptr noundef %1) #0 {
  %3 = alloca ptr, align 8
  %4 = alloca ptr, align 8
  %5 = alloca ptr, align 8
  %6 = alloca ptr, align 8
  %7 = alloca i32, align 4
  store ptr %0, ptr %4, align 8, !tbaa !21
  store ptr %1, ptr %5, align 8, !tbaa !49
  call void @llvm.lifetime.start.p0(i64 8, ptr %6) #7
  store ptr null, ptr %6, align 8, !tbaa !47
  %8 = load ptr, ptr %4, align 8, !tbaa !21
  %9 = load ptr, ptr %5, align 8, !tbaa !49
  %10 = call i32 @ossl_quic_wire_encode_frame_stream_hdr(ptr noundef %8, ptr noundef %9)
  %11 = icmp ne i32 %10, 0
  br i1 %11, label %12, label %17

12:                                               ; preds = %2
  %13 = load ptr, ptr %5, align 8, !tbaa !49
  %14 = getelementptr inbounds nuw %struct.ossl_quic_frame_stream_st, ptr %13, i32 0, i32 2
  %15 = load i64, ptr %14, align 8, !tbaa !54
  %16 = icmp ugt i64 %15, -1
  br i1 %16, label %17, label %18

17:                                               ; preds = %12, %2
  store ptr null, ptr %3, align 8
  store i32 1, ptr %7, align 4
  br label %41

18:                                               ; preds = %12
  %19 = load ptr, ptr %4, align 8, !tbaa !21
  %20 = load ptr, ptr %5, align 8, !tbaa !49
  %21 = getelementptr inbounds nuw %struct.ossl_quic_frame_stream_st, ptr %20, i32 0, i32 2
  %22 = load i64, ptr %21, align 8, !tbaa !54
  %23 = call i32 @WPACKET_allocate_bytes(ptr noundef %19, i64 noundef %22, ptr noundef %6)
  %24 = icmp ne i32 %23, 0
  br i1 %24, label %26, label %25

25:                                               ; preds = %18
  store ptr null, ptr %3, align 8
  store i32 1, ptr %7, align 4
  br label %41

26:                                               ; preds = %18
  %27 = load ptr, ptr %5, align 8, !tbaa !49
  %28 = getelementptr inbounds nuw %struct.ossl_quic_frame_stream_st, ptr %27, i32 0, i32 3
  %29 = load ptr, ptr %28, align 8, !tbaa !55
  %30 = icmp ne ptr %29, null
  br i1 %30, label %31, label %39

31:                                               ; preds = %26
  %32 = load ptr, ptr %6, align 8, !tbaa !47
  %33 = load ptr, ptr %5, align 8, !tbaa !49
  %34 = getelementptr inbounds nuw %struct.ossl_quic_frame_stream_st, ptr %33, i32 0, i32 3
  %35 = load ptr, ptr %34, align 8, !tbaa !55
  %36 = load ptr, ptr %5, align 8, !tbaa !49
  %37 = getelementptr inbounds nuw %struct.ossl_quic_frame_stream_st, ptr %36, i32 0, i32 2
  %38 = load i64, ptr %37, align 8, !tbaa !54
  call void @llvm.memcpy.p0.p0.i64(ptr align 1 %32, ptr align 1 %35, i64 %38, i1 false)
  br label %39

39:                                               ; preds = %31, %26
  %40 = load ptr, ptr %6, align 8, !tbaa !47
  store ptr %40, ptr %3, align 8
  store i32 1, ptr %7, align 4
  br label %41

41:                                               ; preds = %39, %25, %17
  call void @llvm.lifetime.end.p0(i64 8, ptr %6) #7
  %42 = load ptr, ptr %3, align 8
  ret ptr %42
}