; Function Attrs: nounwind uwtable
define ptr @ossl_quic_wire_encode_frame_stream(ptr noundef %0, ptr noundef readonly captures(none) %1) local_unnamed_addr #2 {
  %3 = alloca ptr, align 8
  call void @llvm.lifetime.start.p0(i64 8, ptr nonnull %3) #12
  store ptr null, ptr %3, align 8, !tbaa !33
  %4 = tail call i32 @ossl_quic_wire_encode_frame_stream_hdr(ptr noundef %0, ptr noundef %1)
  %.not = icmp eq i32 %4, 0
  br i1 %.not, label %17, label %5

5:                                                ; preds = %2
  %6 = getelementptr inbounds nuw i8, ptr %1, i64 16
  %7 = load i64, ptr %6, align 8, !tbaa !38
  %8 = call i32 @WPACKET_allocate_bytes(ptr noundef %0, i64 noundef %7, ptr noundef nonnull %3) #12
  %.not10 = icmp eq i32 %8, 0
  br i1 %.not10, label %17, label %9

9:                                                ; preds = %5
  %10 = getelementptr inbounds nuw i8, ptr %1, i64 24
  %11 = load ptr, ptr %10, align 8, !tbaa !39
  %.not11 = icmp eq ptr %11, null
  br i1 %.not11, label %15, label %12

12:                                               ; preds = %9
  %13 = load ptr, ptr %3, align 8, !tbaa !33
  %14 = load i64, ptr %6, align 8, !tbaa !38
  call void @llvm.memcpy.p0.p0.i64(ptr align 1 %13, ptr nonnull align 1 %11, i64 %14, i1 false)
  br label %15

15:                                               ; preds = %12, %9
  %16 = load ptr, ptr %3, align 8, !tbaa !33
  br label %17

17:                                               ; preds = %5, %2, %15
  %.0 = phi ptr [ %16, %15 ], [ null, %2 ], [ null, %5 ]
  call void @llvm.lifetime.end.p0(i64 8, ptr nonnull %3) #12
  ret ptr %.0
}